target datalayout = "e-m:e-p270:32:32-p271:32:32-p272:64:64-i64:64-i128:128-f80:128-n8:16:32:64-S128"
target triple = "x86_64-pc-linux-gnu"

@.str.8 = private unnamed_addr constant [10 x i8] c"0 seconds\00", align 1

; Function Attrs: null_pointer_is_valid sspstrong uwtable
define ptr @signed_time_msecs_to_str(ptr noundef %0, i32 noundef %1) #0 {
  %3 = alloca ptr, align 8
  %4 = alloca ptr, align 8
  %5 = alloca i32, align 4
  %6 = alloca ptr, align 8
  %7 = alloca i32, align 4
  %8 = alloca i32, align 4
  store ptr %0, ptr %4, align 8
  store i32 %1, ptr %5, align 4
  call void @llvm.lifetime.start.p0(i64 8, ptr %6) #8
  call void @llvm.lifetime.start.p0(i64 4, ptr %7) #8
  %9 = load i32, ptr %5, align 4
  %10 = icmp eq i32 %9, 0
  br i1 %10, label %11, label %14

11:                                               ; preds = %2
  %12 = load ptr, ptr %4, align 8
  %13 = call noalias ptr @wmem_strdup(ptr noundef %12, ptr noundef @.str.8)
  store ptr %13, ptr %3, align 8
  store i32 1, ptr %8, align 4
  br label %40

14:                                               ; preds = %2
  %15 = load ptr, ptr %4, align 8
  %16 = call noalias ptr @wmem_strbuf_new_sized(ptr noundef %15, i64 noundef 61)
  store ptr %16, ptr %6, align 8
  %17 = load i32, ptr %5, align 4
  %18 = icmp slt i32 %17, 0
  br i1 %18, label %19, label %28

19:                                               ; preds = %14
  %20 = load i32, ptr %5, align 4
  %21 = sub i32 0, %20
  store i32 %21, ptr %5, align 4
  %22 = load i32, ptr %5, align 4
  %23 = srem i32 %22, 1000
  store i32 %23, ptr %7, align 4
  %24 = load i32, ptr %5, align 4
  %25 = sdiv i32 %24, 1000
  store i32 %25, ptr %5, align 4
  %26 = load i32, ptr %5, align 4
  %27 = sub i32 0, %26
  store i32 %27, ptr %5, align 4
  br label %33

28:                                               ; preds = %14
  %29 = load i32, ptr %5, align 4
  %30 = srem i32 %29, 1000
  store i32 %30, ptr %7, align 4
  %31 = load i32, ptr %5, align 4
  %32 = sdiv i32 %31, 1000
  store i32 %32, ptr %5, align 4
  br label %33

33:                                               ; preds = %28, %19
  %34 = load i32, ptr %5, align 4
  %35 = sext i32 %34 to i64
  %36 = load i32, ptr %7, align 4
  %37 = load ptr, ptr %6, align 8
  call void @signed_time_secs_to_str_buf(i64 noundef %35, i32 noundef %36, i1 noundef zeroext false, ptr noundef %37)
  %38 = load ptr, ptr %6, align 8
  %39 = call ptr @wmem_strbuf_finalize(ptr noundef %38)
  store ptr %39, ptr %3, align 8
  store i32 1, ptr %8, align 4
  br label %40

40:                                               ; preds = %33, %11
  call void @llvm.lifetime.end.p0(i64 4, ptr %7) #8
  call void @llvm.lifetime.end.p0(i64 8, ptr %6) #8
  %41 = load ptr, ptr %3, align 8
  ret ptr %41
}