; Function Attrs: null_pointer_is_valid sspstrong uwtable
define ptr @signed_time_msecs_to_str(ptr noundef %0, i32 noundef %1) local_unnamed_addr #0 {
  %3 = icmp eq i32 %1, 0
  br i1 %3, label %4, label %6

4:                                                ; preds = %2
  %5 = tail call noalias ptr @wmem_strdup(ptr noundef %0, ptr noundef nonnull @.str.8)
  br label %18

6:                                                ; preds = %2
  %7 = tail call noalias ptr @wmem_strbuf_new_sized(ptr noundef %0, i64 noundef 61)
  %8 = icmp slt i32 %1, 0
  br i1 %8, label %9, label %12

9:                                                ; preds = %6
  %10 = sub i32 0, %1
  %11 = srem i32 %10, 1000
  %.neg = sdiv i32 %10, -1000
  br label %15

12:                                               ; preds = %6
  %13 = urem i32 %1, 1000
  %14 = udiv i32 %1, 1000
  br label %15

15:                                               ; preds = %12, %9
  %.015 = phi i32 [ %.neg, %9 ], [ %14, %12 ]
  %.0 = phi i32 [ %11, %9 ], [ %13, %12 ]
  %16 = sext i32 %.015 to i64
  tail call fastcc void @signed_time_secs_to_str_buf(i64 noundef %16, i32 noundef %.0, i1 noundef zeroext false, ptr noundef %7)
  %17 = tail call ptr @wmem_strbuf_finalize(ptr noundef %7)
  br label %18

18:                                               ; preds = %15, %4
  %.014 = phi ptr [ %5, %4 ], [ %17, %15 ]
  ret ptr %.014
}